target datalayout = "e-m:e-p270:32:32-p271:32:32-p272:64:64-i64:64-i128:128-f80:128-n8:16:32:64-S128"
target triple = "x86_64-unknown-linux-gnu"

@.str = private unnamed_addr constant [124 x i8] c"generated/home/dtcxzyw/WorkSpace/Projects/compilers/llvm-opt-benchmark/bench/abseil-cpp/abseil-cpp/absl/crc/internal/crc.cc\00", align 1
@.str.1 = private unnamed_addr constant [20 x i8] c"Check %s failed: %s\00", align 1
@.str.2 = private unnamed_addr constant [9 x i8] c"j <= 256\00", align 1
@.str.3 = private unnamed_addr constant [1 x i8] zeroinitializer, align 1

; Function Attrs: mustprogress nounwind uwtable
define internal void @_ZN4absl12crc_internal12_GLOBAL__N_112PolyMultiplyEPjjj(ptr noundef %val, i32 noundef %m, i32 noundef %poly) #0 {
entry:
  %val.addr = alloca ptr, align 8
  %m.addr = alloca i32, align 4
  %poly.addr = alloca i32, align 4
  %l = alloca i32, align 4
  %result = alloca i32, align 4
  %onebit = alloca i32, align 4
  %one = alloca i32, align 4
  store ptr %val, ptr %val.addr, align 8
  store i32 %m, ptr %m.addr, align 4
  store i32 %poly, ptr %poly.addr, align 4
  %0 = load ptr, ptr %val.addr, align 8
  %1 = load i32, ptr %0, align 4
  store i32 %1, ptr %l, align 4
  store i32 0, ptr %result, align 4
  store i32 -2147483648, ptr %onebit, align 4
  %2 = load i32, ptr %onebit, align 4
  store i32 %2, ptr %one, align 4
  br label %for.cond

for.cond:                                         ; preds = %for.inc, %entry
  %3 = load i32, ptr %one, align 4
  %cmp = icmp ne i32 %3, 0
  br i1 %cmp, label %for.body, label %for.end

for.body:                                         ; preds = %for.cond
  %4 = load i32, ptr %l, align 4
  %5 = load i32, ptr %one, align 4
  %and = and i32 %4, %5
  %cmp1 = icmp ne i32 %and, 0
  br i1 %cmp1, label %if.then, label %if.end

if.then:                                          ; preds = %for.body
  %6 = load i32, ptr %m.addr, align 4
  %7 = load i32, ptr %result, align 4
  %xor = xor i32 %7, %6
  store i32 %xor, ptr %result, align 4
  br label %if.end

if.end:                                           ; preds = %if.then, %for.body
  %8 = load i32, ptr %m.addr, align 4
  %and2 = and i32 %8, 1
  %tobool = icmp ne i32 %and2, 0
  br i1 %tobool, label %if.then3, label %if.else

if.then3:                                         ; preds = %if.end
  %9 = load i32, ptr %m.addr, align 4
  %shr = lshr i32 %9, 1
  %10 = load i32, ptr %poly.addr, align 4
  %xor4 = xor i32 %shr, %10
  store i32 %xor4, ptr %m.addr, align 4
  br label %if.end6

if.else:                                          ; preds = %if.end
  %11 = load i32, ptr %m.addr, align 4
  %shr5 = lshr i32 %11, 1
  store i32 %shr5, ptr %m.addr, align 4
  br label %if.end6

if.end6:                                          ; preds = %if.else, %if.then3
  br label %for.inc

for.inc:                                          ; preds = %if.end6
  %12 = load i32, ptr %one, align 4
  %shr7 = lshr i32 %12, 1
  store i32 %shr7, ptr %one, align 4
  br label %for.cond, !llvm.loop !13

for.end:                                          ; preds = %for.cond
  %13 = load i32, ptr %result, align 4
  %14 = load ptr, ptr %val.addr, align 8
  store i32 %13, ptr %14, align 4
  ret void
}

; Function Attrs: mustprogress uwtable
define dso_local noundef i32 @_ZN4absl12crc_internal7CRCImpl15FillZeroesTableEjPA256_j(i32 noundef %poly, ptr noundef %t) #1 align 2 {
entry:
  %poly.addr = alloca i32, align 4
  %t.addr = alloca ptr, align 8
  %inc = alloca i32, align 4
  %i = alloca i32, align 4
  %j = alloca i32, align 4
  %inc_len = alloca i64, align 8
  %v = alloca i32, align 4
  %a = alloca i32, align 4
  %absl_raw_log_internal_basename = alloca ptr, align 8
  store i32 %poly, ptr %poly.addr, align 4
  store ptr %t, ptr %t.addr, align 8
  store i32 1, ptr %inc, align 4
  %0 = load i32, ptr %inc, align 4
  %shl = shl i32 %0, 31
  store i32 %shl, ptr %inc, align 4
  %1 = load i32, ptr %inc, align 4
  %shr = lshr i32 %1, 1
  store i32 %shr, ptr %inc, align 4
  store i32 0, ptr %i, align 4
  br label %for.cond

for.cond:                                         ; preds = %for.inc, %entry
  %2 = load i32, ptr %i, align 4
  %cmp = icmp slt i32 %2, 3
  br i1 %cmp, label %for.body, label %for.end

for.body:                                         ; preds = %for.cond
  %3 = load i32, ptr %inc, align 4
  %4 = load i32, ptr %poly.addr, align 4
  call void @_ZN4absl12crc_internal12_GLOBAL__N_112PolyMultiplyEPjjj(ptr noundef %inc, i32 noundef %3, i32 noundef %4)
  br label %for.inc

for.inc:                                          ; preds = %for.body
  %5 = load i32, ptr %i, align 4
  %inc1 = add nsw i32 %5, 1
  store i32 %inc1, ptr %i, align 4
  br label %for.cond, !llvm.loop !10

for.end:                                          ; preds = %for.cond
  store i32 0, ptr %j, align 4
  store i64 1, ptr %inc_len, align 8
  br label %for.cond2

for.cond2:                                        ; preds = %for.inc13, %for.end
  %6 = load i64, ptr %inc_len, align 8
  %cmp3 = icmp ne i64 %6, 0
  br i1 %cmp3, label %for.body4, label %for.end15

for.body4:                                        ; preds = %for.cond2
  %7 = load i32, ptr %inc, align 4
  store i32 %7, ptr %v, align 4
  store i32 1, ptr %a, align 4
  br label %for.cond5

for.cond5:                                        ; preds = %for.inc10, %for.body4
  %8 = load i32, ptr %a, align 4
  %cmp6 = icmp ne i32 %8, 16
  br i1 %cmp6, label %for.body7, label %for.end12

for.body7:                                        ; preds = %for.cond5
  %9 = load i32, ptr %v, align 4
  %10 = load ptr, ptr %t.addr, align 8
  %arrayidx = getelementptr inbounds [256 x i32], ptr %10, i64 0
  %11 = load i32, ptr %j, align 4
  %idxprom = sext i32 %11 to i64
  %arrayidx8 = getelementptr inbounds [256 x i32], ptr %arrayidx, i64 0, i64 %idxprom
  store i32 %9, ptr %arrayidx8, align 4
  %12 = load i32, ptr %inc, align 4
  %13 = load i32, ptr %poly.addr, align 4
  call void @_ZN4absl12crc_internal12_GLOBAL__N_112PolyMultiplyEPjjj(ptr noundef %v, i32 noundef %12, i32 noundef %13)
  %14 = load i32, ptr %j, align 4
  %inc9 = add nsw i32 %14, 1
  store i32 %inc9, ptr %j, align 4
  br label %for.inc10

for.inc10:                                        ; preds = %for.body7
  %15 = load i32, ptr %a, align 4
  %inc11 = add nsw i32 %15, 1
  store i32 %inc11, ptr %a, align 4
  br label %for.cond5, !llvm.loop !11

for.end12:                                        ; preds = %for.cond5
  %16 = load i32, ptr %v, align 4
  store i32 %16, ptr %inc, align 4
  br label %for.inc13

for.inc13:                                        ; preds = %for.end12
  %17 = load i64, ptr %inc_len, align 8
  %shl14 = shl i64 %17, 4
  store i64 %shl14, ptr %inc_len, align 8
  br label %for.cond2, !llvm.loop !12

for.end15:                                        ; preds = %for.cond2
  br label %do.body

do.body:                                          ; preds = %for.end15
  %18 = load i32, ptr %j, align 4
  %cmp16 = icmp sle i32 %18, 256
  %lnot = xor i1 %cmp16, true
  br i1 %lnot, label %if.then, label %if.end

if.then:                                          ; preds = %do.body
  br label %do.body17

do.body17:                                        ; preds = %if.then
  store ptr getelementptr (i8, ptr @.str, i64 117), ptr %absl_raw_log_internal_basename, align 8
  call void (i32, ptr, i32, ptr, ...) @_ZN4absl16raw_log_internal6RawLogENS_11LogSeverityEPKciS3_z(i32 noundef 3, ptr noundef getelementptr (i8, ptr @.str, i64 117), i32 noundef 160, ptr noundef @.str.1, ptr noundef @.str.2, ptr noundef @.str.3)
  br label %do.body18

do.body18:                                        ; preds = %do.body17
  unreachable

do.end:                                           ; No predecessors!
  br label %do.end19

do.end19:                                         ; preds = %do.end
  br label %if.end

if.end:                                           ; preds = %do.end19, %do.body
  br label %do.end20

do.end20:                                         ; preds = %if.end
  %19 = load i32, ptr %j, align 4
  ret i32 %19
}