; Function Attrs: mustprogress uwtable
define dso_local noundef i32 @_ZN4absl12crc_internal7CRCImpl15FillZeroesTableEjPA256_j(i32 noundef %poly, ptr nocapture noundef writeonly %t) local_unnamed_addr #1 align 2 {
entry:
  br label %for.body.i.preheader

for.body.i.preheader:                             ; preds = %entry, %_ZN4absl12crc_internal12_GLOBAL__N_112PolyMultiplyEPjjj.exit
  %i.030 = phi i32 [ 0, %entry ], [ %inc1, %_ZN4absl12crc_internal12_GLOBAL__N_112PolyMultiplyEPjjj.exit ]
  %inc.029 = phi i32 [ 1073741824, %entry ], [ %spec.select.i, %_ZN4absl12crc_internal12_GLOBAL__N_112PolyMultiplyEPjjj.exit ]
  br label %for.body.i

for.body.i:                                       ; preds = %for.body.i.preheader, %for.body.i
  %one.010.i = phi i32 [ %shr7.i, %for.body.i ], [ -2147483648, %for.body.i.preheader ]
  %m.addr.09.i = phi i32 [ %m.addr.1.i, %for.body.i ], [ %inc.029, %for.body.i.preheader ]
  %result.08.i = phi i32 [ %spec.select.i, %for.body.i ], [ 0, %for.body.i.preheader ]
  %and.i = and i32 %one.010.i, %inc.029
  %cmp1.not.i = icmp eq i32 %and.i, 0
  %xor.i = select i1 %cmp1.not.i, i32 0, i32 %m.addr.09.i
  %spec.select.i = xor i32 %xor.i, %result.08.i
  %and2.i = and i32 %m.addr.09.i, 1
  %tobool.not.i = icmp eq i32 %and2.i, 0
  %shr.i = lshr i32 %m.addr.09.i, 1
  %xor4.i = select i1 %tobool.not.i, i32 0, i32 %poly
  %m.addr.1.i = xor i32 %xor4.i, %shr.i
  %shr7.i = lshr i32 %one.010.i, 1
  %cmp.not.i = icmp ult i32 %one.010.i, 2
  br i1 %cmp.not.i, label %_ZN4absl12crc_internal12_GLOBAL__N_112PolyMultiplyEPjjj.exit, label %for.body.i, !llvm.loop !10

_ZN4absl12crc_internal12_GLOBAL__N_112PolyMultiplyEPjjj.exit: ; preds = %for.body.i
  %inc1 = add nuw nsw i32 %i.030, 1
  %exitcond.not = icmp eq i32 %inc1, 3
  br i1 %exitcond.not, label %for.cond5.preheader, label %for.body.i.preheader, !llvm.loop !11

for.cond5.preheader:                              ; preds = %_ZN4absl12crc_internal12_GLOBAL__N_112PolyMultiplyEPjjj.exit, %for.end12
  %inc_len.036 = phi i64 [ %shl14, %for.end12 ], [ 1, %_ZN4absl12crc_internal12_GLOBAL__N_112PolyMultiplyEPjjj.exit ]
  %j.035 = phi i64 [ %indvars.iv.next, %for.end12 ], [ 0, %_ZN4absl12crc_internal12_GLOBAL__N_112PolyMultiplyEPjjj.exit ]
  %inc.134 = phi i32 [ %spec.select.i15, %for.end12 ], [ %spec.select.i, %_ZN4absl12crc_internal12_GLOBAL__N_112PolyMultiplyEPjjj.exit ]
  %sext = shl i64 %j.035, 32
  %0 = ashr exact i64 %sext, 32
  br label %for.body7

for.body7:                                        ; preds = %for.cond5.preheader, %_ZN4absl12crc_internal12_GLOBAL__N_112PolyMultiplyEPjjj.exit23
  %indvars.iv = phi i64 [ %0, %for.cond5.preheader ], [ %indvars.iv.next, %_ZN4absl12crc_internal12_GLOBAL__N_112PolyMultiplyEPjjj.exit23 ]
  %a.033 = phi i32 [ 1, %for.cond5.preheader ], [ %inc11, %_ZN4absl12crc_internal12_GLOBAL__N_112PolyMultiplyEPjjj.exit23 ]
  %v.031 = phi i32 [ %inc.134, %for.cond5.preheader ], [ %spec.select.i15, %_ZN4absl12crc_internal12_GLOBAL__N_112PolyMultiplyEPjjj.exit23 ]
  %arrayidx8 = getelementptr inbounds [256 x i32], ptr %t, i64 0, i64 %indvars.iv
  store i32 %v.031, ptr %arrayidx8, align 4
  br label %for.body.i8

for.body.i8:                                      ; preds = %for.body.i8, %for.body7
  %one.010.i9 = phi i32 [ -2147483648, %for.body7 ], [ %shr7.i21, %for.body.i8 ]
  %m.addr.09.i10 = phi i32 [ %inc.134, %for.body7 ], [ %m.addr.1.i20, %for.body.i8 ]
  %result.08.i11 = phi i32 [ 0, %for.body7 ], [ %spec.select.i15, %for.body.i8 ]
  %and.i12 = and i32 %one.010.i9, %v.031
  %cmp1.not.i13 = icmp eq i32 %and.i12, 0
  %xor.i14 = select i1 %cmp1.not.i13, i32 0, i32 %m.addr.09.i10
  %spec.select.i15 = xor i32 %xor.i14, %result.08.i11
  %and2.i16 = and i32 %m.addr.09.i10, 1
  %tobool.not.i17 = icmp eq i32 %and2.i16, 0
  %shr.i18 = lshr i32 %m.addr.09.i10, 1
  %xor4.i19 = select i1 %tobool.not.i17, i32 0, i32 %poly
  %m.addr.1.i20 = xor i32 %xor4.i19, %shr.i18
  %shr7.i21 = lshr i32 %one.010.i9, 1
  %cmp.not.i22 = icmp ult i32 %one.010.i9, 2
  br i1 %cmp.not.i22, label %_ZN4absl12crc_internal12_GLOBAL__N_112PolyMultiplyEPjjj.exit23, label %for.body.i8, !llvm.loop !10

_ZN4absl12crc_internal12_GLOBAL__N_112PolyMultiplyEPjjj.exit23: ; preds = %for.body.i8
  %indvars.iv.next = add nsw i64 %indvars.iv, 1
  %inc11 = add nuw nsw i32 %a.033, 1
  %cmp6.not = icmp eq i32 %inc11, 16
  br i1 %cmp6.not, label %for.end12, label %for.body7, !llvm.loop !12

for.end12:                                        ; preds = %_ZN4absl12crc_internal12_GLOBAL__N_112PolyMultiplyEPjjj.exit23
  %shl14 = shl i64 %inc_len.036, 4
  %cmp3.not = icmp eq i64 %shl14, 0
  br i1 %cmp3.not, label %do.body, label %for.cond5.preheader, !llvm.loop !13

do.body:                                          ; preds = %for.end12
  %1 = trunc i64 %indvars.iv to i32
  %cmp16 = icmp sgt i32 %1, 255
  br i1 %cmp16, label %do.body17, label %do.end20

do.body17:                                        ; preds = %do.body
  tail call void (i32, ptr, i32, ptr, ...) @_ZN4absl16raw_log_internal6RawLogENS_11LogSeverityEPKciS3_z(i32 noundef 3, ptr noundef nonnull getelementptr inbounds ([124 x i8], ptr @.str, i64 0, i64 117), i32 noundef 160, ptr noundef nonnull @.str.1, ptr noundef nonnull @.str.2, ptr noundef nonnull @.str.3)
  unreachable

do.end20:                                         ; preds = %do.body
  %2 = trunc i64 %indvars.iv.next to i32
  ret i32 %2
}